; Function Attrs: mustprogress uwtable
define hidden noundef zeroext i1 @_ZNK3nla11nex_creator13is_simplifiedERKNS_3nexE(ptr noundef nonnull align 8 dereferenceable(176) %this, ptr noundef nonnull align 8 dereferenceable(8) %e) local_unnamed_addr #3 align 2 {
entry:
  %vtable.i = load ptr, ptr %e, align 8
  %vfn.i = getelementptr inbounds i8, ptr %vtable.i, i64 8
  %0 = load ptr, ptr %vfn.i, align 8
  %call.i = tail call noundef i32 %0(ptr noundef nonnull align 8 dereferenceable(8) %e)
  %cmp.i = icmp eq i32 %call.i, 3
  br i1 %cmp.i, label %if.then, label %if.end

if.then:                                          ; preds = %entry
  %call3 = tail call noundef zeroext i1 @_ZNK3nla11nex_creator17mul_is_simplifiedERKNS_7nex_mulE(ptr noundef nonnull align 8 dereferenceable(176) %this, ptr noundef nonnull align 8 dereferenceable(48) %e)
  br label %return

if.end:                                           ; preds = %entry
  %vtable.i4 = load ptr, ptr %e, align 8
  %vfn.i5 = getelementptr inbounds i8, ptr %vtable.i4, i64 8
  %1 = load ptr, ptr %vfn.i5, align 8
  %call.i6 = tail call noundef i32 %1(ptr noundef nonnull align 8 dereferenceable(8) %e)
  %cmp.i7 = icmp eq i32 %call.i6, 2
  br i1 %cmp.i7, label %if.then5, label %return

if.then5:                                         ; preds = %if.end
  %call7 = tail call noundef zeroext i1 @_ZNK3nla11nex_creator17sum_is_simplifiedERKNS_7nex_sumE(ptr noundef nonnull align 8 dereferenceable(176) %this, ptr noundef nonnull align 8 dereferenceable(16) %e)
  br label %return

return:                                           ; preds = %if.end, %if.then5, %if.then
  %retval.0 = phi i1 [ %call3, %if.then ], [ %call7, %if.then5 ], [ true, %if.end ]
  ret i1 %retval.0
}